; Function Attrs: nounwind uwtable
define internal void @nodeid_profile_uat_free_cb(ptr noundef captures(none) %0) #2 {
  %2 = getelementptr inbounds nuw i8, ptr %0, i64 8
  %3 = load i8, ptr %2, align 8
  %4 = and i8 %3, 1
  %.not = icmp eq i8 %4, 0
  br i1 %.not, label %5, label %16

5:                                                ; preds = %1
  %6 = getelementptr inbounds nuw i8, ptr %0, i64 16
  %7 = load i32, ptr %6, align 8
  %.not.i.i = icmp eq i32 %7, 0
  br i1 %.not.i.i, label %free_address.exit, label %8

8:                                                ; preds = %5
  %9 = getelementptr inbounds nuw i8, ptr %0, i64 20
  %10 = load i32, ptr %9, align 4
  %11 = icmp sgt i32 %10, 0
  br i1 %11, label %12, label %free_address.exit

12:                                               ; preds = %8
  %13 = getelementptr inbounds nuw i8, ptr %0, i64 32
  %14 = load ptr, ptr %13, align 8
  %.not6.i.i = icmp eq ptr %14, null
  br i1 %.not6.i.i, label %free_address.exit, label %15

15:                                               ; preds = %12
  tail call void @wmem_free(ptr noundef null, ptr noundef nonnull %14) #18
  br label %free_address.exit

free_address.exit:                                ; preds = %5, %8, %12, %15
  tail call void @llvm.memset.p0.i64(ptr noundef nonnull align 8 dereferenceable(24) %6, i8 0, i64 24, i1 false)
  br label %16

16:                                               ; preds = %free_address.exit, %1
  %17 = load ptr, ptr %0, align 8
  tail call void @g_free(ptr noundef %17) #18
  ret void
}